(lp1
(lp2
I3
aI0
aI0
aI0
aa(lp3
I0
aI0
aI0
aI0
aa(lp4
I2
aI0
aI0
aI0
aa(lp5
I2
aI0
aI0
aI0
aa(lp6
I2
aI0
aI0
aI0
aa(lp7
I5
aI0
aI0
aI0
aa(lp8
I2
aI0
aI0
aI0
aa(lp9
I0
aI0
aI0
aI0
aa(lp10
I3
aI0
aI0
aI0
aa(lp11
I2
aI0
aI0
aI0
aa(lp12
I0
aI0
aI0
aI0
aa(lp13
I2
aI0
aI0
aI0
aa(lp14
I0
aI0
aI0
aI0
aa(lp15
I0
aI0
aI0
aI0
aa(lp16
I0
aI0
aI0
aI0
aa(lp17
I0
aI0
aI0
aI0
aa(lp18
I2
aI0
aI0
aI0
aa(lp19
I3
aI0
aI0
aI0
aa(lp20
I0
aI0
aI0
aI0
aa(lp21
I0
aI0
aI0
aI0
aa(lp22
I2
aI0
aI0
aI0
aa(lp23
I0
aI0
aI0
aI0
aa(lp24
I2
aI0
aI0
aI0
aa(lp25
I0
aI0
aI0
aI0
aa(lp26
I5
aI0
aI0
aI0
aa(lp27
I0
aI0
aI0
aI0
aa(lp28
I4
aI0
aI0
aI0
aa(lp29
I3
aI0
aI0
aI0
aa(lp30
I0
aI0
aI0
aI0
aa(lp31
I1
aI0
aI0
aI0
aa(lp32
I1
aI0
aI0
aI0
aa(lp33
I1
aI0
aI0
aI0
aa(lp34
I0
aI0
aI0
aI0
aa(lp35
I0
aI0
aI0
aI0
aa(lp36
I1
aI0
aI0
aI0
aa(lp37
I3
aI0
aI0
aI0
aa(lp38
I0
aI0
aI0
aI0
aa(lp39
I0
aI0
aI0
aI0
aa(lp40
I0
aI0
aI0
aI0
aa(lp41
I0
aI0
aI0
aI0
aa(lp42
I2
aI0
aI0
aI0
aa(lp43
I4
aI0
aI0
aI0
aa(lp44
I1
aI0
aI0
aI0
aa(lp45
I2
aI0
aI0
aI0
aa(lp46
I0
aI0
aI0
aI0
aa(lp47
I0
aI0
aI0
aI0
aa(lp48
I0
aI0
aI0
aI0
aa(lp49
I0
aI0
aI0
aI0
aa(lp50
I3
aI0
aI0
aI0
aa(lp51
I2
aI0
aI0
aI0
aa(lp52
I5
aI0
aI0
aI0
aa(lp53
I2
aI0
aI0
aI0
aa(lp54
I0
aI0
aI0
aI0
aa(lp55
I0
aI0
aI0
aI0
aa(lp56
I3
aI0
aI0
aI0
aa(lp57
I9
aI0
aI0
aI0
aa(lp58
I0
aI0
aI0
aI0
aa(lp59
I2
aI0
aI0
aI0
aa(lp60
I2
aI0
aI0
aI0
aa(lp61
I0
aI0
aI0
aI0
aa(lp62
I2
aI0
aI0
aI0
aa(lp63
I2
aI0
aI0
aI0
aa(lp64
I4
aI0
aI0
aI0
aa(lp65
I0
aI0
aI0
aI0
aa(lp66
I0
aI0
aI0
aI0
aa(lp67
I0
aI0
aI0
aI0
aa(lp68
I0
aI0
aI0
aI0
aa(lp69
I1
aI0
aI0
aI0
aa(lp70
I1
aI0
aI0
aI0
aa(lp71
I4
aI0
aI0
aI0
aa(lp72
I0
aI0
aI0
aI0
aa(lp73
I4
aI0
aI0
aI0
aa(lp74
I0
aI0
aI0
aI0
aa(lp75
I0
aI0
aI0
aI0
aa(lp76
I0
aI0
aI0
aI0
aa(lp77
I2
aI0
aI0
aI0
aa(lp78
I1
aI0
aI0
aI0
aa(lp79
I0
aI0
aI0
aI0
aa(lp80
I2
aI0
aI0
aI0
aa(lp81
I0
aI0
aI0
aI0
aa(lp82
I4
aI0
aI0
aI0
aa(lp83
I0
aI0
aI0
aI0
aa(lp84
I0
aI0
aI0
aI0
aa(lp85
I0
aI0
aI0
aI0
aa(lp86
I0
aI0
aI0
aI0
aa(lp87
I0
aI0
aI0
aI0
aa(lp88
I0
aI0
aI0
aI0
aa(lp89
I7
aI0
aI0
aI0
aa(lp90
I4
aI0
aI0
aI0
aa(lp91
I0
aI0
aI0
aI0
aa(lp92
I3
aI0
aI0
aI0
aa(lp93
I2
aI0
aI0
aI0
aa(lp94
I2
aI0
aI0
aI0
aa(lp95
I0
aI0
aI0
aI0
aa(lp96
I1
aI0
aI0
aI0
aa(lp97
I2
aI0
aI0
aI0
aa(lp98
I0
aI0
aI0
aI0
aa(lp99
I0
aI0
aI0
aI0
aa(lp100
I2
aI0
aI0
aI0
aa(lp101
I0
aI0
aI0
aI0
aa(lp102
I0
aI0
aI0
aI0
aa(lp103
I6
aI0
aI0
aI0
aa(lp104
I0
aI0
aI0
aI0
aa(lp105
I0
aI0
aI0
aI0
aa(lp106
I3
aI0
aI0
aI0
aa(lp107
I2
aI0
aI0
aI0
aa(lp108
I2
aI0
aI0
aI0
aa(lp109
I0
aI0
aI0
aI0
aa(lp110
I4
aI0
aI0
aI0
aa(lp111
I4
aI0
aI0
aI0
aa(lp112
I2
aI0
aI0
aI0
aa(lp113
I3
aI0
aI0
aI0
aa(lp114
I0
aI0
aI0
aI0
aa(lp115
I0
aI0
aI0
aI0
aa(lp116
I0
aI0
aI0
aI0
aa(lp117
I2
aI0
aI0
aI0
aa(lp118
I0
aI0
aI0
aI0
aa(lp119
I0
aI0
aI0
aI0
aa(lp120
I6
aI0
aI0
aI0
aa(lp121
I4
aI0
aI0
aI0
aa(lp122
I0
aI0
aI0
aI0
aa(lp123
I6
aI0
aI0
aI0
aa(lp124
I0
aI0
aI0
aI0
aa(lp125
I0
aI0
aI0
aI0
aa(lp126
I2
aI0
aI0
aI0
aa(lp127
I0
aI0
aI0
aI0
aa(lp128
I8
aI0
aI0
aI0
aa(lp129
I0
aI0
aI0
aI0
aa(lp130
I4
aI0
aI0
aI0
aa(lp131
I2
aI0
aI0
aI0
aa(lp132
I2
aI0
aI0
aI0
aa(lp133
I1
aI0
aI0
aI0
aa(lp134
I2
aI0
aI0
aI0
aa(lp135
I0
aI0
aI0
aI0
aa(lp136
I2
aI0
aI0
aI0
aa(lp137
I0
aI0
aI0
aI0
aa(lp138
I0
aI0
aI0
aI0
aa(lp139
I4
aI0
aI0
aI0
aa(lp140
I0
aI0
aI0
aI0
aa(lp141
I0
aI0
aI0
aI0
aa(lp142
I0
aI0
aI0
aI0
aa(lp143
I0
aI0
aI0
aI0
aa(lp144
I0
aI0
aI0
aI0
aa(lp145
I3
aI0
aI0
aI0
aa(lp146
I0
aI0
aI0
aI0
aa(lp147
I0
aI0
aI0
aI0
aa(lp148
I3
aI0
aI0
aI0
aa(lp149
I0
aI0
aI0
aI0
aa(lp150
I0
aI0
aI0
aI0
aa(lp151
I0
aI0
aI0
aI0
aa(lp152
I0
aI0
aI0
aI0
aa(lp153
I5
aI0
aI0
aI0
aa(lp154
I4
aI0
aI0
aI0
aa(lp155
I0
aI0
aI0
aI0
aa(lp156
I0
aI0
aI0
aI0
aa(lp157
I3
aI0
aI0
aI0
aa(lp158
I0
aI0
aI0
aI0
aa(lp159
I6
aI0
aI0
aI0
aa(lp160
I1
aI0
aI0
aI0
aa(lp161
I4
aI0
aI0
aI0
aa(lp162
I0
aI0
aI0
aI0
aa(lp163
I2
aI0
aI0
aI0
aa(lp164
I4
aI0
aI0
aI0
aa(lp165
I2
aI0
aI0
aI0
aa(lp166
I2
aI0
aI0
aI0
aa(lp167
I0
aI0
aI0
aI0
aa(lp168
I1
aI0
aI0
aI0
aa(lp169
I2
aI0
aI0
aI0
aa(lp170
I1
aI0
aI0
aI0
aa(lp171
I0
aI0
aI0
aI0
aa(lp172
I0
aI0
aI0
aI0
aa(lp173
I0
aI0
aI0
aI0
aa(lp174
I0
aI0
aI0
aI0
aa(lp175
I0
aI0
aI0
aI0
aa(lp176
I2
aI0
aI0
aI0
aa(lp177
I0
aI0
aI0
aI0
aa(lp178
I1
aI0
aI0
aI0
aa(lp179
I0
aI0
aI0
aI0
aa(lp180
I0
aI0
aI0
aI0
aa(lp181
I0
aI0
aI0
aI0
aa(lp182
I3
aI0
aI0
aI0
aa(lp183
I2
aI0
aI0
aI0
aa(lp184
I2
aI0
aI0
aI0
aa(lp185
I0
aI0
aI0
aI0
aa(lp186
I6
aI0
aI0
aI0
aa(lp187
I0
aI0
aI0
aI0
aa(lp188
I0
aI0
aI0
aI0
aa(lp189
I3
aI0
aI0
aI0
aa(lp190
I0
aI0
aI0
aI0
aa(lp191
I4
aI0
aI0
aI0
aa(lp192
I2
aI0
aI0
aI0
aa(lp193
I1
aI0
aI0
aI0
aa(lp194
I0
aI0
aI0
aI0
aa(lp195
I4
aI0
aI0
aI0
aa(lp196
I0
aI0
aI0
aI0
aa(lp197
I0
aI0
aI0
aI0
aa(lp198
I4
aI0
aI0
aI0
aa(lp199
I0
aI0
aI0
aI0
aa(lp200
I12
aI0
aI0
aI0
aa(lp201
I0
aI0
aI0
aI0
aa(lp202
I0
aI0
aI0
aI0
aa(lp203
I0
aI0
aI0
aI0
aa(lp204
I3
aI0
aI0
aI0
aa(lp205
I2
aI0
aI0
aI0
aa(lp206
I2
aI0
aI0
aI0
aa(lp207
I2
aI0
aI0
aI0
aa(lp208
I0
aI0
aI0
aI0
aa(lp209
I0
aI0
aI0
aI0
aa(lp210
I4
aI0
aI0
aI0
aa(lp211
I2
aI0
aI0
aI0
aa(lp212
I4
aI0
aI0
aI0
aa(lp213
I5
aI0
aI0
aI0
aa(lp214
I2
aI0
aI0
aI0
aa(lp215
I1
aI0
aI0
aI0
aa(lp216
I2
aI0
aI0
aI0
aa(lp217
I0
aI0
aI0
aI0
aa(lp218
I6
aI0
aI0
aI0
aa(lp219
I3
aI0
aI0
aI0
aa(lp220
I0
aI0
aI0
aI0
aa(lp221
I0
aI0
aI0
aI0
aa(lp222
I0
aI0
aI0
aI0
aa(lp223
I3
aI0
aI0
aI0
aa(lp224
I0
aI0
aI0
aI0
aa(lp225
I2
aI0
aI0
aI0
aa(lp226
I2
aI0
aI0
aI0
aa(lp227
I0
aI0
aI0
aI0
aa(lp228
I2
aI0
aI0
aI0
aa(lp229
I0
aI0
aI0
aI0
aa(lp230
I0
aI0
aI0
aI0
aa(lp231
I0
aI0
aI0
aI0
aa(lp232
I6
aI0
aI0
aI0
aa(lp233
I1
aI0
aI0
aI0
aa(lp234
I1
aI0
aI0
aI0
aa(lp235
I0
aI0
aI0
aI0
aa(lp236
I0
aI0
aI0
aI0
aa(lp237
I6
aI0
aI0
aI0
aa(lp238
I0
aI0
aI0
aI0
aa(lp239
I0
aI0
aI0
aI0
aa(lp240
I2
aI0
aI0
aI0
aa(lp241
I2
aI0
aI0
aI0
aa(lp242
I0
aI0
aI0
aI0
aa(lp243
I0
aI0
aI0
aI0
aa(lp244
I2
aI0
aI0
aI0
aa(lp245
I3
aI0
aI0
aI0
aa(lp246
I3
aI0
aI0
aI0
aa(lp247
I0
aI0
aI0
aI0
aa(lp248
I0
aI0
aI0
aI0
aa(lp249
I0
aI0
aI0
aI0
aa(lp250
I1
aI0
aI0
aI0
aa(lp251
I3
aI0
aI0
aI0
aa(lp252
I2
aI0
aI0
aI0
aa(lp253
I1
aI0
aI0
aI0
aa(lp254
I0
aI0
aI0
aI0
aa(lp255
I2
aI0
aI0
aI0
aa(lp256
I0
aI0
aI0
aI0
aa(lp257
I0
aI0
aI0
aI0
aa(lp258
I0
aI0
aI0
aI0
aa(lp259
I2
aI0
aI0
aI0
aa(lp260
I0
aI0
aI0
aI0
aa(lp261
I0
aI0
aI0
aI0
aa(lp262
I1
aI0
aI0
aI0
aa(lp263
I0
aI0
aI0
aI0
aa(lp264
I0
aI0
aI0
aI0
aa(lp265
I2
aI0
aI0
aI0
aa(lp266
I0
aI0
aI0
aI0
aa(lp267
I5
aI0
aI0
aI0
aa(lp268
I0
aI0
aI0
aI0
aa(lp269
I2
aI0
aI0
aI0
aa(lp270
I2
aI0
aI0
aI0
aa(lp271
I0
aI0
aI0
aI0
aa(lp272
I2
aI0
aI0
aI0
aa(lp273
I1
aI0
aI0
aI0
aa(lp274
I2
aI0
aI0
aI0
aa(lp275
I4
aI0
aI0
aI0
aa(lp276
I0
aI0
aI0
aI0
aa(lp277
I0
aI0
aI0
aI0
aa(lp278
I0
aI0
aI0
aI0
aa(lp279
I0
aI0
aI0
aI0
aa(lp280
I1
aI0
aI0
aI0
aa(lp281
I0
aI0
aI0
aI0
aa(lp282
I0
aI0
aI0
aI0
aa(lp283
I0
aI0
aI0
aI0
aa(lp284
I3
aI0
aI0
aI0
aa(lp285
I2
aI0
aI0
aI0
aa(lp286
I0
aI0
aI0
aI0
aa(lp287
I3
aI0
aI0
aI0
aa(lp288
I8
aI0
aI0
aI0
aa(lp289
I2
aI0
aI0
aI0
aa(lp290
I1
aI0
aI0
aI0
aa(lp291
I2
aI0
aI0
aI0
aa(lp292
I6
aI0
aI0
aI0
aa(lp293
I0
aI0
aI0
aI0
aa(lp294
I1
aI0
aI0
aI0
aa(lp295
I0
aI0
aI0
aI0
aa(lp296
I0
aI0
aI0
aI0
aa(lp297
I0
aI0
aI0
aI0
aa(lp298
I0
aI0
aI0
aI0
aa(lp299
I0
aI0
aI0
aI0
aa(lp300
I0
aI0
aI0
aI0
aa(lp301
I0
aI0
aI0
aI0
aa(lp302
I0
aI0
aI0
aI0
aa(lp303
I0
aI0
aI0
aI0
aa(lp304
I0
aI0
aI0
aI0
aa(lp305
I0
aI0
aI0
aI0
aa(lp306
I2
aI0
aI0
aI0
aa(lp307
I0
aI0
aI0
aI0
aa(lp308
I4
aI0
aI0
aI0
aa(lp309
I4
aI0
aI0
aI0
aa(lp310
I0
aI0
aI0
aI0
aa(lp311
I0
aI0
aI0
aI0
aa(lp312
I2
aI0
aI0
aI0
aa(lp313
I1
aI0
aI0
aI0
aa(lp314
I6
aI0
aI0
aI0
aa(lp315
I0
aI0
aI0
aI0
aa(lp316
I2
aI0
aI0
aI0
aa(lp317
I0
aI0
aI0
aI0
aa(lp318
I2
aI0
aI0
aI0
aa(lp319
I6
aI0
aI0
aI0
aa(lp320
I5
aI0
aI0
aI0
aa(lp321
I0
aI0
aI0
aI0
aa(lp322
I0
aI0
aI0
aI0
aa(lp323
I0
aI0
aI0
aI0
aa(lp324
I1
aI0
aI0
aI0
aa(lp325
I0
aI0
aI0
aI0
aa(lp326
I0
aI0
aI0
aI0
aa(lp327
I0
aI0
aI0
aI0
aa(lp328
I0
aI0
aI0
aI0
aa(lp329
I0
aI0
aI0
aI0
aa(lp330
I2
aI0
aI0
aI0
aa(lp331
I0
aI0
aI0
aI0
aa(lp332
I2
aI0
aI0
aI0
aa(lp333
I4
aI0
aI0
aI0
aa(lp334
I2
aI0
aI0
aI0
aa(lp335
I6
aI0
aI0
aI0
aa(lp336
I0
aI0
aI0
aI0
aa(lp337
I3
aI0
aI0
aI0
aa(lp338
I5
aI0
aI0
aI0
aa(lp339
I2
aI0
aI0
aI0
aa(lp340
I0
aI0
aI0
aI0
aa(lp341
I0
aI0
aI0
aI0
aa(lp342
I2
aI0
aI0
aI0
aa(lp343
I7
aI0
aI0
aI0
aa(lp344
I1
aI0
aI0
aI0
aa(lp345
I1
aI0
aI0
aI0
aa.